target datalayout = "e-m:e-p270:32:32-p271:32:32-p272:64:64-i64:64-i128:128-f80:128-n8:16:32:64-S128"
target triple = "x86_64-pc-linux-gnu"

%class.G1MonotonicArenaMemoryStats = type { [4 x i64], [4 x i64] }
%class.G1MonotonicArenaFreePool = type { i32, ptr }
%"class.G1MonotonicArena::SegmentFreeList" = type { %class.LockFreeStack, i64, i64 }
%class.LockFreeStack = type { ptr }
%"struct.Atomic::LoadImpl" = type { i8 }
%"struct.Atomic::PlatformLoad" = type { i8 }

@_ZN27G1MonotonicArenaMemoryStatsC1Ev = hidden unnamed_addr alias void (ptr), ptr @_ZN27G1MonotonicArenaMemoryStatsC2Ev

; Function Attrs: mustprogress nounwind uwtable
define linkonce_odr hidden noundef i64 @_ZNK6Atomic12PlatformLoadILm8EEclImEET_PVKS3_(ptr noundef nonnull align 1 dereferenceable(1) %0, ptr noundef %1) #1 comdat align 2 {
  %3 = alloca ptr, align 8
  %4 = alloca ptr, align 8
  store ptr %0, ptr %3, align 8
  store ptr %1, ptr %4, align 8
  %5 = load ptr, ptr %4, align 8
  %6 = load volatile i64, ptr %5, align 8
  ret i64 %6
}

; Function Attrs: mustprogress nounwind uwtable
define linkonce_odr hidden noundef i64 @_ZNK6Atomic8LoadImplImNS_12PlatformLoadILm8EEEvEclEPVKm(ptr noundef nonnull align 1 dereferenceable(1) %0, ptr noundef %1) #1 comdat align 2 {
  %3 = alloca ptr, align 8
  %4 = alloca ptr, align 8
  %5 = alloca %"struct.Atomic::PlatformLoad", align 1
  store ptr %0, ptr %3, align 8
  store ptr %1, ptr %4, align 8
  %6 = load ptr, ptr %4, align 8
  %7 = call noundef i64 @_ZNK6Atomic12PlatformLoadILm8EEclImEET_PVKS3_(ptr noundef nonnull align 1 dereferenceable(1) %5, ptr noundef %6)
  ret i64 %7
}

; Function Attrs: mustprogress nounwind uwtable
define linkonce_odr hidden noundef i64 @_ZN6Atomic4loadImEET_PVKS1_(ptr noundef %0) #1 comdat align 2 {
  %2 = alloca ptr, align 8
  %3 = alloca %"struct.Atomic::LoadImpl", align 1
  store ptr %0, ptr %2, align 8
  %4 = load ptr, ptr %2, align 8
  %5 = call noundef i64 @_ZNK6Atomic8LoadImplImNS_12PlatformLoadILm8EEEvEclEPVKm(ptr noundef nonnull align 1 dereferenceable(1) %3, ptr noundef %4)
  ret i64 %5
}

; Function Attrs: mustprogress nounwind uwtable
define linkonce_odr hidden noundef i64 @_ZNK16G1MonotonicArena15SegmentFreeList12num_segmentsEv(ptr noundef nonnull align 8 dereferenceable(24) %0) #1 comdat align 2 {
  %2 = alloca ptr, align 8
  store ptr %0, ptr %2, align 8
  %3 = load ptr, ptr %2, align 8
  %4 = getelementptr inbounds %"class.G1MonotonicArena::SegmentFreeList", ptr %3, i32 0, i32 1
  %5 = call noundef i64 @_ZN6Atomic4loadImEET_PVKS1_(ptr noundef %4)
  ret i64 %5
}

; Function Attrs: mustprogress nounwind uwtable
define linkonce_odr hidden noundef i64 @_ZNK16G1MonotonicArena15SegmentFreeList8mem_sizeEv(ptr noundef nonnull align 8 dereferenceable(24) %0) #1 comdat align 2 {
  %2 = alloca ptr, align 8
  store ptr %0, ptr %2, align 8
  %3 = load ptr, ptr %2, align 8
  %4 = getelementptr inbounds %"class.G1MonotonicArena::SegmentFreeList", ptr %3, i32 0, i32 2
  %5 = call noundef i64 @_ZN6Atomic4loadImEET_PVKS1_(ptr noundef %4)
  ret i64 %5
}

; Function Attrs: mustprogress nounwind uwtable
define linkonce_odr hidden noundef i32 @_ZNK24G1MonotonicArenaFreePool14num_free_listsEv(ptr noundef nonnull align 8 dereferenceable(16) %0) #1 comdat align 2 {
  %2 = alloca ptr, align 8
  store ptr %0, ptr %2, align 8
  %3 = load ptr, ptr %2, align 8
  %4 = getelementptr inbounds %class.G1MonotonicArenaFreePool, ptr %3, i32 0, i32 0
  %5 = load i32, ptr %4, align 8
  ret i32 %5
}

; Function Attrs: mustprogress nounwind uwtable
define hidden void @_ZNK24G1MonotonicArenaFreePool12memory_sizesEv(ptr dead_on_unwind noalias writable sret(%class.G1MonotonicArenaMemoryStats) align 8 %0, ptr noundef nonnull align 8 dereferenceable(16) %1) #1 align 2 {
  %3 = alloca ptr, align 8
  %4 = alloca i32, align 4
  store ptr %1, ptr %3, align 8
  %5 = load ptr, ptr %3, align 8
  call void @_ZN27G1MonotonicArenaMemoryStatsC1Ev(ptr noundef nonnull align 8 dereferenceable(64) %0)
  store i32 0, ptr %4, align 4
  br label %6

6:                                                ; preds = %31, %2
  %7 = load i32, ptr %4, align 4
  %8 = call noundef i32 @_ZNK24G1MonotonicArenaFreePool14num_free_listsEv(ptr noundef nonnull align 8 dereferenceable(16) %5)
  %9 = icmp ult i32 %7, %8
  br i1 %9, label %10, label %34

10:                                               ; preds = %6
  %11 = getelementptr inbounds %class.G1MonotonicArenaFreePool, ptr %5, i32 0, i32 1
  %12 = load ptr, ptr %11, align 8
  %13 = load i32, ptr %4, align 4
  %14 = zext i32 %13 to i64
  %15 = getelementptr inbounds %"class.G1MonotonicArena::SegmentFreeList", ptr %12, i64 %14
  %16 = call noundef i64 @_ZNK16G1MonotonicArena15SegmentFreeList8mem_sizeEv(ptr noundef nonnull align 8 dereferenceable(24) %15)
  %17 = getelementptr inbounds %class.G1MonotonicArenaMemoryStats, ptr %0, i32 0, i32 0
  %18 = load i32, ptr %4, align 4
  %19 = zext i32 %18 to i64
  %20 = getelementptr inbounds [4 x i64], ptr %17, i64 0, i64 %19
  store i64 %16, ptr %20, align 8
  %21 = getelementptr inbounds %class.G1MonotonicArenaFreePool, ptr %5, i32 0, i32 1
  %22 = load ptr, ptr %21, align 8
  %23 = load i32, ptr %4, align 4
  %24 = zext i32 %23 to i64
  %25 = getelementptr inbounds %"class.G1MonotonicArena::SegmentFreeList", ptr %22, i64 %24
  %26 = call noundef i64 @_ZNK16G1MonotonicArena15SegmentFreeList12num_segmentsEv(ptr noundef nonnull align 8 dereferenceable(24) %25)
  %27 = getelementptr inbounds %class.G1MonotonicArenaMemoryStats, ptr %0, i32 0, i32 1
  %28 = load i32, ptr %4, align 4
  %29 = zext i32 %28 to i64
  %30 = getelementptr inbounds [4 x i64], ptr %27, i64 0, i64 %29
  store i64 %26, ptr %30, align 8
  br label %31

31:                                               ; preds = %10
  %32 = load i32, ptr %4, align 4
  %33 = add i32 %32, 1
  store i32 %33, ptr %4, align 4
  br label %6, !llvm.loop !13

34:                                               ; preds = %6
  ret void
}