; Function Attrs: mustprogress nofree norecurse nounwind uwtable
define hidden void @_ZNK24G1MonotonicArenaFreePool12memory_sizesEv(ptr dead_on_unwind noalias nocapture writable writeonly sret(%class.G1MonotonicArenaMemoryStats) align 8 %0, ptr nocapture noundef nonnull readonly align 8 dereferenceable(16) %1) local_unnamed_addr #3 align 2 {
  tail call void @llvm.memset.p0.i64(ptr noundef nonnull align 8 dereferenceable(64) %0, i8 0, i64 64, i1 false)
  %3 = load i32, ptr %1, align 8
  %.not = icmp eq i32 %3, 0
  br i1 %.not, label %._crit_edge, label %.lr.ph

.lr.ph:                                           ; preds = %2
  %4 = getelementptr inbounds i8, ptr %1, i64 8
  %5 = load ptr, ptr %4, align 8
  %6 = getelementptr inbounds i8, ptr %0, i64 32
  %wide.trip.count = zext i32 %3 to i64
  br label %7

7:                                                ; preds = %.lr.ph, %7
  %indvars.iv = phi i64 [ 0, %.lr.ph ], [ %indvars.iv.next, %7 ]
  %8 = getelementptr inbounds %"class.G1MonotonicArena::SegmentFreeList", ptr %5, i64 %indvars.iv
  %9 = getelementptr inbounds i8, ptr %8, i64 16
  %10 = load volatile i64, ptr %9, align 8
  %11 = getelementptr inbounds [4 x i64], ptr %0, i64 0, i64 %indvars.iv
  store i64 %10, ptr %11, align 8
  %12 = getelementptr inbounds i8, ptr %8, i64 8
  %13 = load volatile i64, ptr %12, align 8
  %14 = getelementptr inbounds [4 x i64], ptr %6, i64 0, i64 %indvars.iv
  store i64 %13, ptr %14, align 8
  %indvars.iv.next = add nuw nsw i64 %indvars.iv, 1
  %exitcond.not = icmp eq i64 %indvars.iv.next, %wide.trip.count
  br i1 %exitcond.not, label %._crit_edge, label %7, !llvm.loop !12

._crit_edge:                                      ; preds = %7, %2
  ret void
}